; Function Attrs: nounwind uwtable
define zeroext i8 @l_Lean_Server_FileWorker_handleFoldingRange_isImport(ptr noundef %0) local_unnamed_addr #0 {
  %2 = load ptr, ptr @l_Lean_Server_FileWorker_handleFoldingRange_isImport___closed__2, align 8, !tbaa !10
  %3 = ptrtoint ptr %0 to i64
  %4 = and i64 %3, 1
  %.not = icmp eq i64 %4, 0
  br i1 %.not, label %5, label %lean_inc.exit.thread

5:                                                ; preds = %1
  %.val.i = load i32, ptr %0, align 4, !tbaa !4
  %6 = icmp sgt i32 %.val.i, 0
  br i1 %6, label %7, label %9, !prof !9

7:                                                ; preds = %5
  %8 = add nuw i32 %.val.i, 1
  store i32 %8, ptr %0, align 4, !tbaa !4
  br label %lean_inc.exit

9:                                                ; preds = %5
  %.not.i9 = icmp eq i32 %.val.i, 0
  br i1 %.not.i9, label %lean_inc.exit, label %10

10:                                               ; preds = %9
  tail call void @lean_inc_ref_cold(ptr noundef nonnull %0) #8
  br label %lean_inc.exit

lean_inc.exit:                                    ; preds = %10, %9, %7
  %11 = tail call zeroext i8 @l_Lean_Syntax_isOfKind(ptr noundef nonnull %0, ptr noundef %2) #8
  %12 = icmp eq i8 %11, 0
  br i1 %12, label %15, label %18

lean_inc.exit.thread:                             ; preds = %1
  %13 = tail call zeroext i8 @l_Lean_Syntax_isOfKind(ptr noundef %0, ptr noundef %2) #8
  %14 = icmp eq i8 %13, 0
  br i1 %14, label %15, label %lean_dec.exit

15:                                               ; preds = %lean_inc.exit.thread, %lean_inc.exit
  %16 = load ptr, ptr @l_Lean_Server_FileWorker_handleFoldingRange_isImport___closed__4, align 8, !tbaa !10
  %17 = tail call zeroext i8 @l_Lean_Syntax_isOfKind(ptr noundef %0, ptr noundef %16) #8
  br label %lean_dec.exit

18:                                               ; preds = %lean_inc.exit
  %19 = load i32, ptr %0, align 4, !tbaa !4
  %20 = icmp sgt i32 %19, 1
  br i1 %20, label %21, label %23, !prof !9

21:                                               ; preds = %18
  %22 = add nsw i32 %19, -1
  store i32 %22, ptr %0, align 4, !tbaa !4
  br label %lean_dec.exit

23:                                               ; preds = %18
  %.not.i = icmp eq i32 %19, 0
  br i1 %.not.i, label %lean_dec.exit, label %24

24:                                               ; preds = %23
  tail call void @lean_dec_ref_cold(ptr noundef nonnull %0) #8
  br label %lean_dec.exit

lean_dec.exit:                                    ; preds = %lean_inc.exit.thread, %21, %23, %24, %15
  %.0 = phi i8 [ %17, %15 ], [ 1, %24 ], [ 1, %23 ], [ 1, %21 ], [ 1, %lean_inc.exit.thread ]
  ret i8 %.0
}